target datalayout = "e-m:e-p270:32:32-p271:32:32-p272:64:64-i64:64-i128:128-f80:128-n8:16:32:64-S128"
target triple = "x86_64-pc-linux-gnu"

@.str.2 = private unnamed_addr constant [15 x i8] c"operatorcmds.c\00", align 1
@.str.26 = private unnamed_addr constant [7 x i8] c"float8\00", align 1
@.str.27 = private unnamed_addr constant [48 x i8] c"join estimator function %s has multiple matches\00", align 1
@__func__.ValidateJoinEstimator = private unnamed_addr constant [22 x i8] c"ValidateJoinEstimator\00", align 1
@.str.28 = private unnamed_addr constant [47 x i8] c"join estimator function %s must return type %s\00", align 1

; Function Attrs: nounwind uwtable
define internal i32 @ValidateJoinEstimator(ptr noundef %0) #0 {
  %2 = alloca ptr, align 8
  %3 = alloca [5 x i32], align 16
  %4 = alloca i32, align 4
  %5 = alloca i32, align 4
  %6 = alloca i32, align 4
  store ptr %0, ptr %2, align 8
  call void @llvm.lifetime.start.p0(i64 20, ptr %3) #8
  call void @llvm.lifetime.start.p0(i64 4, ptr %4) #8
  call void @llvm.lifetime.start.p0(i64 4, ptr %5) #8
  call void @llvm.lifetime.start.p0(i64 4, ptr %6) #8
  %7 = getelementptr inbounds [5 x i32], ptr %3, i64 0, i64 0
  store i32 2281, ptr %7, align 16
  %8 = getelementptr inbounds [5 x i32], ptr %3, i64 0, i64 1
  store i32 26, ptr %8, align 4
  %9 = getelementptr inbounds [5 x i32], ptr %3, i64 0, i64 2
  store i32 2281, ptr %9, align 8
  %10 = getelementptr inbounds [5 x i32], ptr %3, i64 0, i64 3
  store i32 21, ptr %10, align 4
  %11 = getelementptr inbounds [5 x i32], ptr %3, i64 0, i64 4
  store i32 2281, ptr %11, align 16
  %12 = load ptr, ptr %2, align 8
  %13 = getelementptr inbounds [5 x i32], ptr %3, i64 0, i64 0
  %14 = call i32 @LookupFuncName(ptr noundef %12, i32 noundef 5, ptr noundef %13, i1 noundef zeroext true)
  store i32 %14, ptr %4, align 4
  %15 = load ptr, ptr %2, align 8
  %16 = getelementptr inbounds [5 x i32], ptr %3, i64 0, i64 0
  %17 = call i32 @LookupFuncName(ptr noundef %15, i32 noundef 4, ptr noundef %16, i1 noundef zeroext true)
  store i32 %17, ptr %5, align 4
  %18 = load i32, ptr %4, align 4
  %19 = icmp ne i32 %18, 0
  br i1 %19, label %20, label %38

20:                                               ; preds = %1
  %21 = load i32, ptr %5, align 4
  %22 = icmp ne i32 %21, 0
  br i1 %22, label %23, label %37

23:                                               ; preds = %20
  br label %24

24:                                               ; preds = %23
  br i1 true, label %25, label %27

25:                                               ; preds = %24
  %26 = call zeroext i1 @errstart_cold(i32 noundef 21, ptr noundef null) #10
  br i1 %26, label %29, label %34

27:                                               ; preds = %24
  %28 = call zeroext i1 @errstart(i32 noundef 21, ptr noundef null)
  br i1 %28, label %29, label %34

29:                                               ; preds = %27, %25
  %30 = call i32 @errcode(i32 noundef 84439172)
  %31 = load ptr, ptr %2, align 8
  %32 = call ptr @NameListToString(ptr noundef %31)
  %33 = call i32 (ptr, ...) @errmsg(ptr noundef @.str.27, ptr noundef %32)
  call void @errfinish(ptr noundef @.str.2, i32 noundef 336, ptr noundef @__func__.ValidateJoinEstimator)
  br label %34

34:                                               ; preds = %29, %27, %25
  unreachable

35:                                               ; No predecessors!
  br label %36

36:                                               ; preds = %35
  br label %37

37:                                               ; preds = %36, %20
  br label %47

38:                                               ; preds = %1
  %39 = load i32, ptr %5, align 4
  store i32 %39, ptr %4, align 4
  %40 = load i32, ptr %4, align 4
  %41 = icmp ne i32 %40, 0
  br i1 %41, label %46, label %42

42:                                               ; preds = %38
  %43 = load ptr, ptr %2, align 8
  %44 = getelementptr inbounds [5 x i32], ptr %3, i64 0, i64 0
  %45 = call i32 @LookupFuncName(ptr noundef %43, i32 noundef 5, ptr noundef %44, i1 noundef zeroext false)
  store i32 %45, ptr %4, align 4
  br label %46

46:                                               ; preds = %42, %38
  br label %47

47:                                               ; preds = %46, %37
  %48 = load i32, ptr %4, align 4
  %49 = call i32 @get_func_rettype(i32 noundef %48)
  %50 = icmp ne i32 %49, 701
  br i1 %50, label %51, label %65

51:                                               ; preds = %47
  br label %52

52:                                               ; preds = %51
  br i1 true, label %53, label %55

53:                                               ; preds = %52
  %54 = call zeroext i1 @errstart_cold(i32 noundef 21, ptr noundef null) #10
  br i1 %54, label %57, label %62

55:                                               ; preds = %52
  %56 = call zeroext i1 @errstart(i32 noundef 21, ptr noundef null)
  br i1 %56, label %57, label %62

57:                                               ; preds = %55, %53
  %58 = call i32 @errcode(i32 noundef 117833860)
  %59 = load ptr, ptr %2, align 8
  %60 = call ptr @NameListToString(ptr noundef %59)
  %61 = call i32 (ptr, ...) @errmsg(ptr noundef @.str.28, ptr noundef %60, ptr noundef @.str.26)
  call void @errfinish(ptr noundef @.str.2, i32 noundef 351, ptr noundef @__func__.ValidateJoinEstimator)
  br label %62

62:                                               ; preds = %57, %55, %53
  unreachable

63:                                               ; No predecessors!
  br label %64

64:                                               ; preds = %63
  br label %65

65:                                               ; preds = %64, %47
  %66 = load i32, ptr %4, align 4
  %67 = call i32 @GetUserId()
  %68 = call i32 @object_aclcheck(i32 noundef 1255, i32 noundef %66, i32 noundef %67, i64 noundef 128)
  store i32 %68, ptr %6, align 4
  %69 = load i32, ptr %6, align 4
  %70 = icmp ne i32 %69, 0
  br i1 %70, label %71, label %75

71:                                               ; preds = %65
  %72 = load i32, ptr %6, align 4
  %73 = load ptr, ptr %2, align 8
  %74 = call ptr @NameListToString(ptr noundef %73)
  call void @aclcheck_error(i32 noundef %72, i32 noundef 19, ptr noundef %74)
  br label %75

75:                                               ; preds = %71, %65
  %76 = load i32, ptr %4, align 4
  call void @llvm.lifetime.end.p0(i64 4, ptr %6) #8
  call void @llvm.lifetime.end.p0(i64 4, ptr %5) #8
  call void @llvm.lifetime.end.p0(i64 4, ptr %4) #8
  call void @llvm.lifetime.end.p0(i64 20, ptr %3) #8
  ret i32 %76
}