; Function Attrs: nounwind uwtable
define internal fastcc noundef i32 @ValidateJoinEstimator(ptr noundef nonnull %0) unnamed_addr #0 {
  %2 = alloca [5 x i32], align 16
  call void @llvm.lifetime.start.p0(i64 20, ptr nonnull %2) #7
  store i32 2281, ptr %2, align 16
  %3 = getelementptr inbounds nuw i8, ptr %2, i64 4
  store i32 26, ptr %3, align 4
  %4 = getelementptr inbounds nuw i8, ptr %2, i64 8
  store i32 2281, ptr %4, align 8
  %5 = getelementptr inbounds nuw i8, ptr %2, i64 12
  store i32 21, ptr %5, align 4
  %6 = getelementptr inbounds nuw i8, ptr %2, i64 16
  store i32 2281, ptr %6, align 16
  %7 = call i32 @LookupFuncName(ptr noundef nonnull %0, i32 noundef 5, ptr noundef nonnull %2, i1 noundef zeroext true) #7
  %8 = call i32 @LookupFuncName(ptr noundef nonnull %0, i32 noundef 4, ptr noundef nonnull %2, i1 noundef zeroext true) #7
  %.not = icmp eq i32 %7, 0
  %.not17 = icmp eq i32 %8, 0
  br i1 %.not, label %15, label %9

9:                                                ; preds = %1
  br i1 %.not17, label %18, label %10

10:                                               ; preds = %9
  %11 = call zeroext i1 @errstart_cold(i32 noundef 21, ptr noundef null) #9
  call void @llvm.assume(i1 %11)
  %12 = call i32 @errcode(i32 noundef 84439172) #7
  %13 = call ptr @NameListToString(ptr noundef nonnull %0) #7
  %14 = call i32 (ptr, ...) @errmsg(ptr noundef nonnull @.str.27, ptr noundef %13) #7
  call void @errfinish(ptr noundef nonnull @.str.2, i32 noundef 336, ptr noundef nonnull @__func__.ValidateJoinEstimator) #7
  unreachable

15:                                               ; preds = %1
  br i1 %.not17, label %16, label %18

16:                                               ; preds = %15
  %17 = call i32 @LookupFuncName(ptr noundef nonnull %0, i32 noundef 5, ptr noundef nonnull %2, i1 noundef zeroext false) #7
  br label %18

18:                                               ; preds = %15, %16, %9
  %.0 = phi i32 [ %7, %9 ], [ %8, %15 ], [ %17, %16 ]
  %19 = call i32 @get_func_rettype(i32 noundef %.0) #7
  %.not19 = icmp eq i32 %19, 701
  br i1 %.not19, label %25, label %20

20:                                               ; preds = %18
  %21 = call zeroext i1 @errstart_cold(i32 noundef 21, ptr noundef null) #9
  call void @llvm.assume(i1 %21)
  %22 = call i32 @errcode(i32 noundef 117833860) #7
  %23 = call ptr @NameListToString(ptr noundef nonnull %0) #7
  %24 = call i32 (ptr, ...) @errmsg(ptr noundef nonnull @.str.28, ptr noundef %23, ptr noundef nonnull @.str.26) #7
  call void @errfinish(ptr noundef nonnull @.str.2, i32 noundef 351, ptr noundef nonnull @__func__.ValidateJoinEstimator) #7
  unreachable

25:                                               ; preds = %18
  %26 = call i32 @GetUserId() #7
  %27 = call i32 @object_aclcheck(i32 noundef 1255, i32 noundef %.0, i32 noundef %26, i64 noundef 128) #7
  %.not20 = icmp eq i32 %27, 0
  br i1 %.not20, label %30, label %28

28:                                               ; preds = %25
  %29 = call ptr @NameListToString(ptr noundef nonnull %0) #7
  call void @aclcheck_error(i32 noundef %27, i32 noundef 19, ptr noundef %29) #7
  br label %30

30:                                               ; preds = %28, %25
  call void @llvm.lifetime.end.p0(i64 20, ptr nonnull %2) #7
  ret i32 %.0
}